target datalayout = "e-m:e-p270:32:32-p271:32:32-p272:64:64-i64:64-i128:128-f80:128-n8:16:32:64-S128"
target triple = "x86_64-pc-linux-gnu"

%struct.zrange_result_handler = type { i32, ptr, ptr, ptr, ptr, i32, i32, ptr, ptr, ptr, ptr }

@.str.1 = private unnamed_addr constant [9 x i8] c"t_zset.c\00", align 1
@.str.79 = private unnamed_addr constant [7 x i8] c"retval\00", align 1

; Function Attrs: nounwind uwtable
define internal void @zrangeResultEmitLongLongForStore(ptr noundef %0, i64 noundef %1, double noundef %2) #0 {
  %4 = alloca ptr, align 8
  %5 = alloca i64, align 8
  %6 = alloca double, align 8
  %7 = alloca double, align 8
  %8 = alloca i32, align 4
  %9 = alloca ptr, align 8
  %10 = alloca i32, align 4
  store ptr %0, ptr %4, align 8, !tbaa !208
  store i64 %1, ptr %5, align 8, !tbaa !99
  store double %2, ptr %6, align 8, !tbaa !9
  call void @llvm.lifetime.start.p0(i64 8, ptr %7) #12
  call void @llvm.lifetime.start.p0(i64 4, ptr %8) #12
  store i32 0, ptr %8, align 4, !tbaa !5
  call void @llvm.lifetime.start.p0(i64 8, ptr %9) #12
  %11 = load i64, ptr %5, align 8, !tbaa !99
  %12 = call ptr @sdsfromlonglong(i64 noundef %11)
  store ptr %12, ptr %9, align 8, !tbaa !11
  call void @llvm.lifetime.start.p0(i64 4, ptr %10) #12
  %13 = load ptr, ptr %4, align 8, !tbaa !208
  %14 = getelementptr inbounds nuw %struct.zrange_result_handler, ptr %13, i32 0, i32 3
  %15 = load ptr, ptr %14, align 8, !tbaa !257
  %16 = load double, ptr %6, align 8, !tbaa !9
  %17 = load ptr, ptr %9, align 8, !tbaa !11
  %18 = call i32 @zsetAdd(ptr noundef %15, double noundef %16, ptr noundef %17, i32 noundef 0, ptr noundef %8, ptr noundef %7)
  store i32 %18, ptr %10, align 4, !tbaa !5
  %19 = load ptr, ptr %9, align 8, !tbaa !11
  call void @sdsfree(ptr noundef %19)
  %20 = load i32, ptr %10, align 4, !tbaa !5
  %21 = icmp ne i32 %20, 0
  %22 = xor i1 %21, true
  %23 = xor i1 %22, true
  %24 = zext i1 %23 to i32
  %25 = sext i32 %24 to i64
  %26 = call i64 @llvm.expect.i64(i64 %25, i64 1)
  %27 = icmp ne i64 %26, 0
  br i1 %27, label %28, label %29

28:                                               ; preds = %3
  br label %31

29:                                               ; preds = %3
  call void @_serverAssert(ptr noundef @.str.79, ptr noundef @.str.1, i32 noundef 3078)
  call void @abort() #14
  unreachable

30:                                               ; No predecessors!
  br label %31

31:                                               ; preds = %30, %28
  call void @llvm.lifetime.end.p0(i64 4, ptr %10) #12
  call void @llvm.lifetime.end.p0(i64 8, ptr %9) #12
  call void @llvm.lifetime.end.p0(i64 4, ptr %8) #12
  call void @llvm.lifetime.end.p0(i64 8, ptr %7) #12
  ret void
}