; Function Attrs: nounwind uwtable
define internal void @zrangeResultEmitLongLongForStore(ptr noundef readonly captures(none) %0, i64 noundef %1, double noundef %2) #0 {
  %4 = alloca double, align 8
  %5 = alloca i32, align 4
  call void @llvm.lifetime.start.p0(i64 8, ptr nonnull %4) #18
  call void @llvm.lifetime.start.p0(i64 4, ptr nonnull %5) #18
  %6 = tail call ptr @sdsfromlonglong(i64 noundef %1) #18
  %7 = getelementptr inbounds nuw i8, ptr %0, i64 24
  %8 = load ptr, ptr %7, align 8, !tbaa !229
  %9 = call i32 @zsetAdd(ptr noundef %8, double noundef %2, ptr noundef %6, i32 noundef 0, ptr noundef nonnull %5, ptr noundef nonnull %4)
  call void @sdsfree(ptr noundef %6) #18
  %.not = icmp eq i32 %9, 0
  br i1 %.not, label %10, label %11, !prof !40

10:                                               ; preds = %3
  call void @_serverAssert(ptr noundef nonnull @.str.79, ptr noundef nonnull @.str.1, i32 noundef 3078) #18
  call void @abort() #19
  unreachable

11:                                               ; preds = %3
  call void @llvm.lifetime.end.p0(i64 4, ptr nonnull %5) #18
  call void @llvm.lifetime.end.p0(i64 8, ptr nonnull %4) #18
  ret void
}